; Function Attrs: nofree norecurse nosync nounwind memory(read, inaccessiblemem: none) uwtable
define i32 @Gia_ManCheckCoPhase(ptr noundef readonly captures(none) %0) local_unnamed_addr #14 {
  %2 = getelementptr inbounds nuw i8, ptr %0, i64 72
  %3 = load ptr, ptr %2, align 8
  %4 = getelementptr i8, ptr %3, i64 4
  %.val = load i32, ptr %4, align 4
  %5 = icmp sgt i32 %.val, 0
  br i1 %5, label %.lr.ph, label %.critedge

.lr.ph:                                           ; preds = %1
  %6 = getelementptr i8, ptr %0, i64 32
  %.val9 = load ptr, ptr %6, align 8
  %.not = icmp eq ptr %.val9, null
  br i1 %.not, label %.critedge, label %.lr.ph.split

.lr.ph.split:                                     ; preds = %.lr.ph
  %7 = getelementptr i8, ptr %3, i64 8
  %.val10.val = load ptr, ptr %7, align 8
  %wide.trip.count = zext nneg i32 %.val to i64
  br label %8

8:                                                ; preds = %.lr.ph.split, %8
  %indvars.iv = phi i64 [ 0, %.lr.ph.split ], [ %indvars.iv.next, %8 ]
  %.012 = phi i32 [ 0, %.lr.ph.split ], [ %16, %8 ]
  %9 = getelementptr inbounds nuw i32, ptr %.val10.val, i64 %indvars.iv
  %10 = load i32, ptr %9, align 4
  %11 = sext i32 %10 to i64
  %12 = getelementptr inbounds %struct.Gia_Obj_t_, ptr %.val9, i64 %11
  %13 = load i64, ptr %12, align 4
  %14 = lshr i64 %13, 63
  %15 = trunc nuw nsw i64 %14 to i32
  %16 = add nuw nsw i32 %.012, %15
  %indvars.iv.next = add nuw nsw i64 %indvars.iv, 1
  %exitcond.not = icmp eq i64 %indvars.iv.next, %wide.trip.count
  br i1 %exitcond.not, label %.critedge, label %8, !llvm.loop !20

.critedge:                                        ; preds = %8, %.lr.ph, %1
  %.0.lcssa = phi i32 [ 0, %1 ], [ 0, %.lr.ph ], [ %16, %8 ]
  ret i32 %.0.lcssa
}